; Function Attrs: mustprogress uwtable
define void @_ZNK3nix10SourcePath15getPhysicalPathB5cxx11Ev(ptr dead_on_unwind noalias writable sret(%"class.std::optional.39") align 8 %0, ptr noundef nonnull align 8 dereferenceable(48) %1) local_unnamed_addr #5 align 2 {
  %3 = load ptr, ptr %1, align 8
  %4 = load ptr, ptr %3, align 8
  %5 = getelementptr i8, ptr %4, i64 -24
  %6 = load i64, ptr %5, align 8
  %7 = getelementptr inbounds i8, ptr %3, i64 %6
  %8 = getelementptr inbounds i8, ptr %1, i64 16
  %9 = load ptr, ptr %7, align 8
  %10 = getelementptr inbounds i8, ptr %9, i64 72
  %11 = load ptr, ptr %10, align 8
  tail call void %11(ptr dead_on_unwind writable sret(%"class.std::optional.39") align 8 %0, ptr noundef nonnull align 8 dereferenceable(80) %7, ptr noundef nonnull align 8 dereferenceable(32) %8)
  ret void
}